target datalayout = "e-m:e-p270:32:32-p271:32:32-p272:64:64-i64:64-i128:128-f80:128-n8:16:32:64-S128"
target triple = "x86_64-pc-linux-gnu"

%"class.gmx::AnalysisDataModuleManager::Impl" = type { %"class.std::vector", [3 x i8], i8, i8, i8, i32, i32 }
%"class.std::vector" = type { %"struct.std::_Vector_base" }
%"struct.std::_Vector_base" = type { %"struct.std::_Vector_base<gmx::AnalysisDataModuleManager::Impl::ModuleInfo, std::allocator<gmx::AnalysisDataModuleManager::Impl::ModuleInfo>>::_Vector_impl" }
%"struct.std::_Vector_base<gmx::AnalysisDataModuleManager::Impl::ModuleInfo, std::allocator<gmx::AnalysisDataModuleManager::Impl::ModuleInfo>>::_Vector_impl" = type { %"struct.std::_Vector_base<gmx::AnalysisDataModuleManager::Impl::ModuleInfo, std::allocator<gmx::AnalysisDataModuleManager::Impl::ModuleInfo>>::_Vector_impl_data" }
%"struct.std::_Vector_base<gmx::AnalysisDataModuleManager::Impl::ModuleInfo, std::allocator<gmx::AnalysisDataModuleManager::Impl::ModuleInfo>>::_Vector_impl_data" = type { ptr, ptr, ptr }
%"class.std::__shared_count" = type { ptr }
%"class.gmx::AnalysisDataModuleManager" = type { %"class.std::unique_ptr.25" }
%"class.std::unique_ptr.25" = type { %"struct.std::__uniq_ptr_data.26" }
%"struct.std::__uniq_ptr_data.26" = type { %"class.std::__uniq_ptr_impl.27" }
%"class.std::__uniq_ptr_impl.27" = type { %"class.std::tuple.28" }
%"class.std::tuple.28" = type { %"struct.std::_Tuple_impl.29" }
%"struct.std::_Tuple_impl.29" = type { %"struct.std::_Head_base.32" }
%"struct.std::_Head_base.32" = type { ptr }
%"struct.gmx::AnalysisDataModuleManager::Impl::ModuleInfo" = type <{ %"class.std::shared_ptr.35", i8, [7 x i8] }>
%"class.std::shared_ptr.35" = type { %"class.std::__shared_ptr.36" }
%"class.std::__shared_ptr.36" = type { ptr, %"class.std::__shared_count" }
%"class.__gnu_cxx::__normal_iterator" = type { ptr }
%"class.__gnu_cxx::__normal_iterator.40" = type { ptr }

; Function Attrs: mustprogress nounwind uwtable
define linkonce_odr noundef nonnull align 8 dereferenceable(8) ptr @_ZNSt10_Head_baseILm0EPN3gmx25AnalysisDataModuleManager4ImplELb0EE7_M_headERKS4_(ptr noundef nonnull align 8 dereferenceable(8) %0) #0 comdat align 2 {
  %2 = alloca ptr, align 8
  store ptr %0, ptr %2, align 8, !tbaa !200
  %3 = load ptr, ptr %2, align 8, !tbaa !200
  %4 = getelementptr inbounds nuw %"struct.std::_Head_base.32", ptr %3, i32 0, i32 0
  ret ptr %4
}

; Function Attrs: mustprogress nounwind uwtable
define linkonce_odr noundef nonnull align 8 dereferenceable(8) ptr @_ZNSt11_Tuple_implILm0EJPN3gmx25AnalysisDataModuleManager4ImplESt14default_deleteIS2_EEE7_M_headERKS6_(ptr noundef nonnull align 8 dereferenceable(8) %0) #0 comdat align 2 {
  %2 = alloca ptr, align 8
  store ptr %0, ptr %2, align 8, !tbaa !196
  %3 = load ptr, ptr %2, align 8, !tbaa !196
  %4 = call noundef nonnull align 8 dereferenceable(8) ptr @_ZNSt10_Head_baseILm0EPN3gmx25AnalysisDataModuleManager4ImplELb0EE7_M_headERKS4_(ptr noundef nonnull align 8 dereferenceable(8) %3) #17
  ret ptr %4
}

; Function Attrs: mustprogress nounwind uwtable
define linkonce_odr noundef nonnull align 8 dereferenceable(8) ptr @_ZSt12__get_helperILm0EPN3gmx25AnalysisDataModuleManager4ImplEJSt14default_deleteIS2_EEERKT0_RKSt11_Tuple_implIXT_EJS6_DpT1_EE(ptr noundef nonnull align 8 dereferenceable(8) %0) #0 comdat {
  %2 = alloca ptr, align 8
  store ptr %0, ptr %2, align 8, !tbaa !196
  %3 = load ptr, ptr %2, align 8, !tbaa !196
  %4 = call noundef nonnull align 8 dereferenceable(8) ptr @_ZNSt11_Tuple_implILm0EJPN3gmx25AnalysisDataModuleManager4ImplESt14default_deleteIS2_EEE7_M_headERKS6_(ptr noundef nonnull align 8 dereferenceable(8) %3) #17
  ret ptr %4
}

; Function Attrs: mustprogress nounwind uwtable
define linkonce_odr noundef nonnull align 8 dereferenceable(8) ptr @_ZSt3getILm0EJPN3gmx25AnalysisDataModuleManager4ImplESt14default_deleteIS2_EEERKNSt13tuple_elementIXT_ESt5tupleIJDpT0_EEE4typeERKSA_(ptr noundef nonnull align 8 dereferenceable(8) %0) #0 comdat {
  %2 = alloca ptr, align 8
  store ptr %0, ptr %2, align 8, !tbaa !194
  %3 = load ptr, ptr %2, align 8, !tbaa !194
  %4 = call noundef nonnull align 8 dereferenceable(8) ptr @_ZSt12__get_helperILm0EPN3gmx25AnalysisDataModuleManager4ImplEJSt14default_deleteIS2_EEERKT0_RKSt11_Tuple_implIXT_EJS6_DpT1_EE(ptr noundef nonnull align 8 dereferenceable(8) %3) #17
  ret ptr %4
}

; Function Attrs: mustprogress nounwind uwtable
define linkonce_odr noundef ptr @_ZNKSt12__shared_ptrIN3gmx19IAnalysisDataModuleELN9__gnu_cxx12_Lock_policyE2EE3getEv(ptr noundef nonnull align 8 dereferenceable(16) %0) #0 comdat align 2 {
  %2 = alloca ptr, align 8
  store ptr %0, ptr %2, align 8, !tbaa !212
  %3 = load ptr, ptr %2, align 8
  %4 = getelementptr inbounds nuw %"class.std::__shared_ptr.36", ptr %3, i32 0, i32 0
  %5 = load ptr, ptr %4, align 8, !tbaa !228
  ret ptr %5
}

; Function Attrs: mustprogress nounwind uwtable
define linkonce_odr noundef ptr @_ZNKSt15__uniq_ptr_implIN3gmx25AnalysisDataModuleManager4ImplESt14default_deleteIS2_EE6_M_ptrEv(ptr noundef nonnull align 8 dereferenceable(8) %0) #0 comdat align 2 {
  %2 = alloca ptr, align 8
  store ptr %0, ptr %2, align 8, !tbaa !192
  %3 = load ptr, ptr %2, align 8
  %4 = getelementptr inbounds nuw %"class.std::__uniq_ptr_impl.27", ptr %3, i32 0, i32 0
  %5 = call noundef nonnull align 8 dereferenceable(8) ptr @_ZSt3getILm0EJPN3gmx25AnalysisDataModuleManager4ImplESt14default_deleteIS2_EEERKNSt13tuple_elementIXT_ESt5tupleIJDpT0_EEE4typeERKSA_(ptr noundef nonnull align 8 dereferenceable(8) %4) #17
  %6 = load ptr, ptr %5, align 8, !tbaa !4
  ret ptr %6
}

; Function Attrs: mustprogress nounwind uwtable
define linkonce_odr noundef ptr @_ZNKSt19__shared_ptr_accessIN3gmx19IAnalysisDataModuleELN9__gnu_cxx12_Lock_policyE2ELb0ELb0EE6_M_getEv(ptr noundef nonnull align 1 dereferenceable(1) %0) #0 comdat align 2 {
  %2 = alloca ptr, align 8
  store ptr %0, ptr %2, align 8, !tbaa !222
  %3 = load ptr, ptr %2, align 8
  %4 = call noundef ptr @_ZNKSt12__shared_ptrIN3gmx19IAnalysisDataModuleELN9__gnu_cxx12_Lock_policyE2EE3getEv(ptr noundef nonnull align 8 dereferenceable(16) %3) #17
  ret ptr %4
}

; Function Attrs: mustprogress nounwind uwtable
define linkonce_odr noundef nonnull align 8 dereferenceable(8) ptr @_ZNK9__gnu_cxx17__normal_iteratorIPKN3gmx25AnalysisDataModuleManager4Impl10ModuleInfoESt6vectorIS4_SaIS4_EEE4baseEv(ptr noundef nonnull align 8 dereferenceable(8) %0) #0 comdat align 2 {
  %2 = alloca ptr, align 8
  store ptr %0, ptr %2, align 8, !tbaa !216
  %3 = load ptr, ptr %2, align 8
  %4 = getelementptr inbounds nuw %"class.__gnu_cxx::__normal_iterator", ptr %3, i32 0, i32 0
  ret ptr %4
}

; Function Attrs: mustprogress nounwind uwtable
define linkonce_odr noundef nonnull align 8 dereferenceable(8) ptr @_ZNK9__gnu_cxx17__normal_iteratorIPN3gmx25AnalysisDataModuleManager4Impl10ModuleInfoESt6vectorIS4_SaIS4_EEE4baseEv(ptr noundef nonnull align 8 dereferenceable(8) %0) #0 comdat align 2 {
  %2 = alloca ptr, align 8
  store ptr %0, ptr %2, align 8, !tbaa !220
  %3 = load ptr, ptr %2, align 8
  %4 = getelementptr inbounds nuw %"class.__gnu_cxx::__normal_iterator.40", ptr %3, i32 0, i32 0
  ret ptr %4
}

; Function Attrs: mustprogress nounwind uwtable
define linkonce_odr void @_ZN9__gnu_cxx17__normal_iteratorIPN3gmx25AnalysisDataModuleManager4Impl10ModuleInfoESt6vectorIS4_SaIS4_EEEC2ERKS5_(ptr noundef nonnull align 8 dereferenceable(8) %0, ptr noundef nonnull align 8 dereferenceable(8) %1) unnamed_addr #0 comdat align 2 {
  %3 = alloca ptr, align 8
  %4 = alloca ptr, align 8
  store ptr %0, ptr %3, align 8, !tbaa !220
  store ptr %1, ptr %4, align 8, !tbaa !224
  %5 = load ptr, ptr %3, align 8
  %6 = getelementptr inbounds nuw %"class.__gnu_cxx::__normal_iterator.40", ptr %5, i32 0, i32 0
  %7 = load ptr, ptr %4, align 8, !tbaa !224
  %8 = load ptr, ptr %7, align 8, !tbaa !210
  store ptr %8, ptr %6, align 8, !tbaa !226
  ret void
}

; Function Attrs: mustprogress nounwind uwtable
define linkonce_odr noundef ptr @_ZNKSt10unique_ptrIN3gmx25AnalysisDataModuleManager4ImplESt14default_deleteIS2_EE3getEv(ptr noundef nonnull align 8 dereferenceable(8) %0) #0 comdat align 2 {
  %2 = alloca ptr, align 8
  store ptr %0, ptr %2, align 8, !tbaa !188
  %3 = load ptr, ptr %2, align 8
  %4 = getelementptr inbounds nuw %"class.std::unique_ptr.25", ptr %3, i32 0, i32 0
  %5 = call noundef ptr @_ZNKSt15__uniq_ptr_implIN3gmx25AnalysisDataModuleManager4ImplESt14default_deleteIS2_EE6_M_ptrEv(ptr noundef nonnull align 8 dereferenceable(8) %4) #17
  ret ptr %5
}

; Function Attrs: mustprogress nounwind uwtable
define linkonce_odr noundef nonnull align 8 dereferenceable(8) ptr @_ZN9__gnu_cxx17__normal_iteratorIPKN3gmx25AnalysisDataModuleManager4Impl10ModuleInfoESt6vectorIS4_SaIS4_EEEppEv(ptr noundef nonnull align 8 dereferenceable(8) %0) #0 comdat align 2 {
  %2 = alloca ptr, align 8
  store ptr %0, ptr %2, align 8, !tbaa !216
  %3 = load ptr, ptr %2, align 8
  %4 = getelementptr inbounds nuw %"class.__gnu_cxx::__normal_iterator", ptr %3, i32 0, i32 0
  %5 = load ptr, ptr %4, align 8, !tbaa !218
  %6 = getelementptr inbounds nuw %"struct.gmx::AnalysisDataModuleManager::Impl::ModuleInfo", ptr %5, i32 1
  store ptr %6, ptr %4, align 8, !tbaa !218
  ret ptr %3
}

; Function Attrs: mustprogress nounwind uwtable
define linkonce_odr noundef ptr @_ZNKSt19__shared_ptr_accessIN3gmx19IAnalysisDataModuleELN9__gnu_cxx12_Lock_policyE2ELb0ELb0EEptEv(ptr noundef nonnull align 1 dereferenceable(1) %0) #0 comdat align 2 {
  %2 = alloca ptr, align 8
  store ptr %0, ptr %2, align 8, !tbaa !222
  %3 = load ptr, ptr %2, align 8
  %4 = call noundef ptr @_ZNKSt19__shared_ptr_accessIN3gmx19IAnalysisDataModuleELN9__gnu_cxx12_Lock_policyE2ELb0ELb0EE6_M_getEv(ptr noundef nonnull align 1 dereferenceable(1) %3) #17
  ret ptr %4
}

; Function Attrs: mustprogress nounwind uwtable
define linkonce_odr noundef ptr @_ZNK9__gnu_cxx17__normal_iteratorIPKN3gmx25AnalysisDataModuleManager4Impl10ModuleInfoESt6vectorIS4_SaIS4_EEEptEv(ptr noundef nonnull align 8 dereferenceable(8) %0) #0 comdat align 2 {
  %2 = alloca ptr, align 8
  store ptr %0, ptr %2, align 8, !tbaa !216
  %3 = load ptr, ptr %2, align 8
  %4 = getelementptr inbounds nuw %"class.__gnu_cxx::__normal_iterator", ptr %3, i32 0, i32 0
  %5 = load ptr, ptr %4, align 8, !tbaa !218
  ret ptr %5
}

; Function Attrs: inlinehint mustprogress nounwind uwtable
define linkonce_odr noundef zeroext i1 @_ZN9__gnu_cxxneIPKN3gmx25AnalysisDataModuleManager4Impl10ModuleInfoEPS4_St6vectorIS4_SaIS4_EEEEbRKNS_17__normal_iteratorIT_T1_EERKNSB_IT0_SD_EE(ptr noundef nonnull align 8 dereferenceable(8) %0, ptr noundef nonnull align 8 dereferenceable(8) %1) #6 comdat {
  %3 = alloca ptr, align 8
  %4 = alloca ptr, align 8
  store ptr %0, ptr %3, align 8, !tbaa !216
  store ptr %1, ptr %4, align 8, !tbaa !220
  %5 = load ptr, ptr %3, align 8, !tbaa !216
  %6 = call noundef nonnull align 8 dereferenceable(8) ptr @_ZNK9__gnu_cxx17__normal_iteratorIPKN3gmx25AnalysisDataModuleManager4Impl10ModuleInfoESt6vectorIS4_SaIS4_EEE4baseEv(ptr noundef nonnull align 8 dereferenceable(8) %5) #17
  %7 = load ptr, ptr %6, align 8, !tbaa !210
  %8 = load ptr, ptr %4, align 8, !tbaa !220
  %9 = call noundef nonnull align 8 dereferenceable(8) ptr @_ZNK9__gnu_cxx17__normal_iteratorIPN3gmx25AnalysisDataModuleManager4Impl10ModuleInfoESt6vectorIS4_SaIS4_EEE4baseEv(ptr noundef nonnull align 8 dereferenceable(8) %8) #17
  %10 = load ptr, ptr %9, align 8, !tbaa !210
  %11 = icmp ne ptr %7, %10
  ret i1 %11
}

; Function Attrs: mustprogress nounwind uwtable
define linkonce_odr ptr @_ZNSt6vectorIN3gmx25AnalysisDataModuleManager4Impl10ModuleInfoESaIS3_EE3endEv(ptr noundef nonnull align 8 dereferenceable(24) %0) #0 comdat align 2 {
  %2 = alloca %"class.__gnu_cxx::__normal_iterator.40", align 8
  %3 = alloca ptr, align 8
  store ptr %0, ptr %3, align 8, !tbaa !23
  %4 = load ptr, ptr %3, align 8
  %5 = getelementptr inbounds nuw %"struct.std::_Vector_base", ptr %4, i32 0, i32 0
  %6 = getelementptr inbounds nuw %"struct.std::_Vector_base<gmx::AnalysisDataModuleManager::Impl::ModuleInfo, std::allocator<gmx::AnalysisDataModuleManager::Impl::ModuleInfo>>::_Vector_impl_data", ptr %5, i32 0, i32 1
  call void @_ZN9__gnu_cxx17__normal_iteratorIPN3gmx25AnalysisDataModuleManager4Impl10ModuleInfoESt6vectorIS4_SaIS4_EEEC2ERKS5_(ptr noundef nonnull align 8 dereferenceable(8) %2, ptr noundef nonnull align 8 dereferenceable(8) %6) #17
  %7 = getelementptr inbounds nuw %"class.__gnu_cxx::__normal_iterator.40", ptr %2, i32 0, i32 0
  %8 = load ptr, ptr %7, align 8
  ret ptr %8
}

; Function Attrs: mustprogress nounwind uwtable
define linkonce_odr void @_ZN9__gnu_cxx17__normal_iteratorIPKN3gmx25AnalysisDataModuleManager4Impl10ModuleInfoESt6vectorIS4_SaIS4_EEEC2IPS4_vEERKNS0_IT_S9_EE(ptr noundef nonnull align 8 dereferenceable(8) %0, ptr noundef nonnull align 8 dereferenceable(8) %1) unnamed_addr #0 comdat align 2 {
  %3 = alloca ptr, align 8
  %4 = alloca ptr, align 8
  store ptr %0, ptr %3, align 8, !tbaa !216
  store ptr %1, ptr %4, align 8, !tbaa !220
  %5 = load ptr, ptr %3, align 8
  %6 = getelementptr inbounds nuw %"class.__gnu_cxx::__normal_iterator", ptr %5, i32 0, i32 0
  %7 = load ptr, ptr %4, align 8, !tbaa !220
  %8 = call noundef nonnull align 8 dereferenceable(8) ptr @_ZNK9__gnu_cxx17__normal_iteratorIPN3gmx25AnalysisDataModuleManager4Impl10ModuleInfoESt6vectorIS4_SaIS4_EEE4baseEv(ptr noundef nonnull align 8 dereferenceable(8) %7) #17
  %9 = load ptr, ptr %8, align 8, !tbaa !210
  store ptr %9, ptr %6, align 8, !tbaa !218
  ret void
}

; Function Attrs: mustprogress nounwind uwtable
define linkonce_odr ptr @_ZNSt6vectorIN3gmx25AnalysisDataModuleManager4Impl10ModuleInfoESaIS3_EE5beginEv(ptr noundef nonnull align 8 dereferenceable(24) %0) #0 comdat align 2 {
  %2 = alloca %"class.__gnu_cxx::__normal_iterator.40", align 8
  %3 = alloca ptr, align 8
  store ptr %0, ptr %3, align 8, !tbaa !23
  %4 = load ptr, ptr %3, align 8
  %5 = getelementptr inbounds nuw %"struct.std::_Vector_base", ptr %4, i32 0, i32 0
  %6 = getelementptr inbounds nuw %"struct.std::_Vector_base<gmx::AnalysisDataModuleManager::Impl::ModuleInfo, std::allocator<gmx::AnalysisDataModuleManager::Impl::ModuleInfo>>::_Vector_impl_data", ptr %5, i32 0, i32 0
  call void @_ZN9__gnu_cxx17__normal_iteratorIPN3gmx25AnalysisDataModuleManager4Impl10ModuleInfoESt6vectorIS4_SaIS4_EEEC2ERKS5_(ptr noundef nonnull align 8 dereferenceable(8) %2, ptr noundef nonnull align 8 dereferenceable(8) %6) #17
  %7 = getelementptr inbounds nuw %"class.__gnu_cxx::__normal_iterator.40", ptr %2, i32 0, i32 0
  %8 = load ptr, ptr %7, align 8
  ret ptr %8
}

; Function Attrs: mustprogress nounwind uwtable
define linkonce_odr void @_ZN9__gnu_cxx17__normal_iteratorIPKN3gmx25AnalysisDataModuleManager4Impl10ModuleInfoESt6vectorIS4_SaIS4_EEEC2Ev(ptr noundef nonnull align 8 dereferenceable(8) %0) unnamed_addr #0 comdat align 2 {
  %2 = alloca ptr, align 8
  store ptr %0, ptr %2, align 8, !tbaa !216
  %3 = load ptr, ptr %2, align 8
  %4 = getelementptr inbounds nuw %"class.__gnu_cxx::__normal_iterator", ptr %3, i32 0, i32 0
  store ptr null, ptr %4, align 8, !tbaa !218
  ret void
}

; Function Attrs: mustprogress nounwind uwtable
define linkonce_odr noundef ptr @_ZNKSt10unique_ptrIN3gmx25AnalysisDataModuleManager4ImplESt14default_deleteIS2_EEptEv(ptr noundef nonnull align 8 dereferenceable(8) %0) #0 comdat align 2 {
  %2 = alloca ptr, align 8
  store ptr %0, ptr %2, align 8, !tbaa !188
  %3 = load ptr, ptr %2, align 8
  %4 = call noundef ptr @_ZNKSt10unique_ptrIN3gmx25AnalysisDataModuleManager4ImplESt14default_deleteIS2_EE3getEv(ptr noundef nonnull align 8 dereferenceable(8) %3) #17
  ret ptr %4
}

; Function Attrs: mustprogress uwtable
define void @_ZNK3gmx25AnalysisDataModuleManager25notifyParallelFrameFinishERKNS_23AnalysisDataFrameHeaderE(ptr noundef nonnull align 8 dereferenceable(8) %0, ptr noundef nonnull align 4 dereferenceable(12) %1) #2 align 2 {
  %3 = alloca ptr, align 8
  %4 = alloca ptr, align 8
  %5 = alloca %"class.__gnu_cxx::__normal_iterator", align 8
  %6 = alloca %"class.__gnu_cxx::__normal_iterator", align 8
  %7 = alloca %"class.__gnu_cxx::__normal_iterator.40", align 8
  %8 = alloca %"class.__gnu_cxx::__normal_iterator.40", align 8
  store ptr %0, ptr %3, align 8, !tbaa !186
  store ptr %1, ptr %4, align 8, !tbaa !172
  %9 = load ptr, ptr %3, align 8
  %10 = getelementptr inbounds nuw %"class.gmx::AnalysisDataModuleManager", ptr %9, i32 0, i32 0
  %11 = call noundef ptr @_ZNKSt10unique_ptrIN3gmx25AnalysisDataModuleManager4ImplESt14default_deleteIS2_EEptEv(ptr noundef nonnull align 8 dereferenceable(8) %10) #17
  %12 = getelementptr inbounds nuw %"class.gmx::AnalysisDataModuleManager::Impl", ptr %11, i32 0, i32 4
  %13 = load i8, ptr %12, align 1, !tbaa !20, !range !46, !noundef !47
  %14 = trunc i8 %13 to i1
  br i1 %14, label %15, label %45

15:                                               ; preds = %2
  call void @llvm.lifetime.start.p0(i64 8, ptr %5) #17
  call void @_ZN9__gnu_cxx17__normal_iteratorIPKN3gmx25AnalysisDataModuleManager4Impl10ModuleInfoESt6vectorIS4_SaIS4_EEEC2Ev(ptr noundef nonnull align 8 dereferenceable(8) %5) #17
  call void @llvm.lifetime.start.p0(i64 8, ptr %6) #17
  call void @llvm.lifetime.start.p0(i64 8, ptr %7) #17
  %16 = getelementptr inbounds nuw %"class.gmx::AnalysisDataModuleManager", ptr %9, i32 0, i32 0
  %17 = call noundef ptr @_ZNKSt10unique_ptrIN3gmx25AnalysisDataModuleManager4ImplESt14default_deleteIS2_EEptEv(ptr noundef nonnull align 8 dereferenceable(8) %16) #17
  %18 = getelementptr inbounds nuw %"class.gmx::AnalysisDataModuleManager::Impl", ptr %17, i32 0, i32 0
  %19 = call ptr @_ZNSt6vectorIN3gmx25AnalysisDataModuleManager4Impl10ModuleInfoESaIS3_EE5beginEv(ptr noundef nonnull align 8 dereferenceable(24) %18) #17
  %20 = getelementptr inbounds nuw %"class.__gnu_cxx::__normal_iterator.40", ptr %7, i32 0, i32 0
  store ptr %19, ptr %20, align 8
  call void @_ZN9__gnu_cxx17__normal_iteratorIPKN3gmx25AnalysisDataModuleManager4Impl10ModuleInfoESt6vectorIS4_SaIS4_EEEC2IPS4_vEERKNS0_IT_S9_EE(ptr noundef nonnull align 8 dereferenceable(8) %6, ptr noundef nonnull align 8 dereferenceable(8) %7) #17
  call void @llvm.memcpy.p0.p0.i64(ptr align 8 %5, ptr align 8 %6, i64 8, i1 false), !tbaa.struct !214
  call void @llvm.lifetime.end.p0(i64 8, ptr %7) #17
  call void @llvm.lifetime.end.p0(i64 8, ptr %6) #17
  br label %21

21:                                               ; preds = %42, %15
  call void @llvm.lifetime.start.p0(i64 8, ptr %8) #17
  %22 = getelementptr inbounds nuw %"class.gmx::AnalysisDataModuleManager", ptr %9, i32 0, i32 0
  %23 = call noundef ptr @_ZNKSt10unique_ptrIN3gmx25AnalysisDataModuleManager4ImplESt14default_deleteIS2_EEptEv(ptr noundef nonnull align 8 dereferenceable(8) %22) #17
  %24 = getelementptr inbounds nuw %"class.gmx::AnalysisDataModuleManager::Impl", ptr %23, i32 0, i32 0
  %25 = call ptr @_ZNSt6vectorIN3gmx25AnalysisDataModuleManager4Impl10ModuleInfoESaIS3_EE3endEv(ptr noundef nonnull align 8 dereferenceable(24) %24) #17
  %26 = getelementptr inbounds nuw %"class.__gnu_cxx::__normal_iterator.40", ptr %8, i32 0, i32 0
  store ptr %25, ptr %26, align 8
  %27 = call noundef zeroext i1 @_ZN9__gnu_cxxneIPKN3gmx25AnalysisDataModuleManager4Impl10ModuleInfoEPS4_St6vectorIS4_SaIS4_EEEEbRKNS_17__normal_iteratorIT_T1_EERKNSB_IT0_SD_EE(ptr noundef nonnull align 8 dereferenceable(8) %5, ptr noundef nonnull align 8 dereferenceable(8) %8) #17
  call void @llvm.lifetime.end.p0(i64 8, ptr %8) #17
  br i1 %27, label %28, label %44

28:                                               ; preds = %21
  %29 = call noundef ptr @_ZNK9__gnu_cxx17__normal_iteratorIPKN3gmx25AnalysisDataModuleManager4Impl10ModuleInfoESt6vectorIS4_SaIS4_EEEptEv(ptr noundef nonnull align 8 dereferenceable(8) %5) #17
  %30 = getelementptr inbounds nuw %"struct.gmx::AnalysisDataModuleManager::Impl::ModuleInfo", ptr %29, i32 0, i32 1
  %31 = load i8, ptr %30, align 8, !tbaa !232, !range !46, !noundef !47
  %32 = trunc i8 %31 to i1
  br i1 %32, label %33, label %41

33:                                               ; preds = %28
  %34 = call noundef ptr @_ZNK9__gnu_cxx17__normal_iteratorIPKN3gmx25AnalysisDataModuleManager4Impl10ModuleInfoESt6vectorIS4_SaIS4_EEEptEv(ptr noundef nonnull align 8 dereferenceable(8) %5) #17
  %35 = getelementptr inbounds nuw %"struct.gmx::AnalysisDataModuleManager::Impl::ModuleInfo", ptr %34, i32 0, i32 0
  %36 = call noundef ptr @_ZNKSt19__shared_ptr_accessIN3gmx19IAnalysisDataModuleELN9__gnu_cxx12_Lock_policyE2ELb0ELb0EEptEv(ptr noundef nonnull align 1 dereferenceable(1) %35) #17
  %37 = load ptr, ptr %4, align 8, !tbaa !172
  %38 = load ptr, ptr %36, align 8, !tbaa !43
  %39 = getelementptr inbounds ptr, ptr %38, i64 7
  %40 = load ptr, ptr %39, align 8
  call void %40(ptr noundef nonnull align 8 dereferenceable(8) %36, ptr noundef nonnull align 4 dereferenceable(12) %37)
  br label %41

41:                                               ; preds = %33, %28
  br label %42

42:                                               ; preds = %41
  %43 = call noundef nonnull align 8 dereferenceable(8) ptr @_ZN9__gnu_cxx17__normal_iteratorIPKN3gmx25AnalysisDataModuleManager4Impl10ModuleInfoESt6vectorIS4_SaIS4_EEEppEv(ptr noundef nonnull align 8 dereferenceable(8) %5) #17
  br label %21, !llvm.loop !252

44:                                               ; preds = %21
  call void @llvm.lifetime.end.p0(i64 8, ptr %5) #17
  br label %45

45:                                               ; preds = %44, %2
  ret void
}