; Function Attrs: mustprogress uwtable
define void @_ZNK3gmx25AnalysisDataModuleManager25notifyParallelFrameFinishERKNS_23AnalysisDataFrameHeaderE(ptr noundef nonnull readonly align 8 captures(none) dereferenceable(8) %0, ptr noundef nonnull align 4 dereferenceable(12) %1) local_unnamed_addr #2 align 2 {
  %3 = load ptr, ptr %0, align 8, !tbaa !71
  %4 = getelementptr inbounds nuw i8, ptr %3, i64 29
  %5 = load i8, ptr %4, align 1, !tbaa !18, !range !60, !noundef !61
  %6 = trunc nuw i8 %5 to i1
  br i1 %6, label %7, label %.loopexit

7:                                                ; preds = %2
  %8 = load ptr, ptr %3, align 8, !tbaa !77
  %9 = getelementptr inbounds nuw i8, ptr %3, i64 8
  %10 = load ptr, ptr %9, align 8, !tbaa !77
  %.not8 = icmp eq ptr %8, %10
  br i1 %.not8, label %.loopexit, label %.lr.ph

.lr.ph:                                           ; preds = %7, %20
  %11 = phi ptr [ %21, %20 ], [ %3, %7 ]
  %.sroa.04.09 = phi ptr [ %22, %20 ], [ %8, %7 ]
  %12 = getelementptr inbounds nuw i8, ptr %.sroa.04.09, i64 16
  %13 = load i8, ptr %12, align 8, !tbaa !82, !range !60, !noundef !61
  %14 = trunc nuw i8 %13 to i1
  br i1 %14, label %15, label %20

15:                                               ; preds = %.lr.ph
  %16 = load ptr, ptr %.sroa.04.09, align 8, !tbaa !78
  %17 = load ptr, ptr %16, align 8, !tbaa !21
  %18 = getelementptr inbounds nuw i8, ptr %17, i64 56
  %19 = load ptr, ptr %18, align 8
  tail call void %19(ptr noundef nonnull align 8 dereferenceable(8) %16, ptr noundef nonnull align 4 dereferenceable(12) %1)
  %.pre = load ptr, ptr %0, align 8, !tbaa !71
  br label %20

20:                                               ; preds = %.lr.ph, %15
  %21 = phi ptr [ %11, %.lr.ph ], [ %.pre, %15 ]
  %22 = getelementptr inbounds nuw i8, ptr %.sroa.04.09, i64 24
  %23 = getelementptr inbounds nuw i8, ptr %21, i64 8
  %24 = load ptr, ptr %23, align 8, !tbaa !77
  %.not = icmp eq ptr %22, %24
  br i1 %.not, label %.loopexit, label %.lr.ph, !llvm.loop !106

.loopexit:                                        ; preds = %20, %7, %2
  ret void
}